target datalayout = "e-m:e-p270:32:32-p271:32:32-p272:64:64-i64:64-i128:128-f80:128-n8:16:32:64-S128"
target triple = "x86_64-pc-linux-gnu"

%struct.Map_NodeStruct_t_ = type { ptr, ptr, i32, i32, i32, i32, [3 x i32], [3 x float], float, ptr, ptr, ptr, ptr, [2 x %struct.Map_TimeStruct_t_], [2 x %struct.Map_TimeStruct_t_], [2 x ptr], ptr, ptr, ptr }
%struct.Map_TimeStruct_t_ = type { float, float, float }
%struct.Map_ManStruct_t_ = type { ptr, i32, ptr, i32, ptr, i32, i32, ptr, ptr, ptr, ptr, ptr, ptr, ptr, ptr, i32, i32, i32, i32, float, float, float, float, i32, i32, float, i32, i32, i32, i32, ptr, [6 x [2 x i32]], [10 x [32 x i32]], [32 x i32], [32 x i32], ptr, ptr, ptr, ptr, ptr, ptr, i32, i32, i32, i32, i32, i32, i64, i64, i64, i64, i64, i64, i64, i64, i64, i64, i64 }
%struct.Map_NodeVecStruct_t_ = type { ptr, i32, i32 }

; Function Attrs: nounwind uwtable
define ptr @Map_MappingDfs(ptr noundef %0, i32 noundef %1) #0 {
  %3 = alloca ptr, align 8
  %4 = alloca i32, align 4
  %5 = alloca ptr, align 8
  %6 = alloca i32, align 4
  store ptr %0, ptr %3, align 8, !tbaa !20
  store i32 %1, ptr %4, align 4, !tbaa !10
  call void @llvm.lifetime.start.p0(i64 8, ptr %5) #4
  call void @llvm.lifetime.start.p0(i64 4, ptr %6) #4
  %7 = call ptr @Map_NodeVecAlloc(i32 noundef 100)
  store ptr %7, ptr %5, align 8, !tbaa !8
  store i32 0, ptr %6, align 4, !tbaa !10
  br label %8

8:                                                ; preds = %27, %2
  %9 = load i32, ptr %6, align 4, !tbaa !10
  %10 = load ptr, ptr %3, align 8, !tbaa !20
  %11 = getelementptr inbounds nuw %struct.Map_ManStruct_t_, ptr %10, i32 0, i32 5
  %12 = load i32, ptr %11, align 8, !tbaa !21
  %13 = icmp slt i32 %9, %12
  br i1 %13, label %14, label %30

14:                                               ; preds = %8
  %15 = load ptr, ptr %3, align 8, !tbaa !20
  %16 = getelementptr inbounds nuw %struct.Map_ManStruct_t_, ptr %15, i32 0, i32 4
  %17 = load ptr, ptr %16, align 8, !tbaa !32
  %18 = load i32, ptr %6, align 4, !tbaa !10
  %19 = sext i32 %18 to i64
  %20 = getelementptr inbounds ptr, ptr %17, i64 %19
  %21 = load ptr, ptr %20, align 8, !tbaa !3
  %22 = ptrtoint ptr %21 to i64
  %23 = and i64 %22, -2
  %24 = inttoptr i64 %23 to ptr
  %25 = load ptr, ptr %5, align 8, !tbaa !8
  %26 = load i32, ptr %4, align 4, !tbaa !10
  call void @Map_MappingDfs_rec(ptr noundef %24, ptr noundef %25, i32 noundef %26)
  br label %27

27:                                               ; preds = %14
  %28 = load i32, ptr %6, align 4, !tbaa !10
  %29 = add nsw i32 %28, 1
  store i32 %29, ptr %6, align 4, !tbaa !10
  br label %8, !llvm.loop !33

30:                                               ; preds = %8
  store i32 0, ptr %6, align 4, !tbaa !10
  br label %31

31:                                               ; preds = %49, %30
  %32 = load i32, ptr %6, align 4, !tbaa !10
  %33 = load ptr, ptr %5, align 8, !tbaa !8
  %34 = getelementptr inbounds nuw %struct.Map_NodeVecStruct_t_, ptr %33, i32 0, i32 1
  %35 = load i32, ptr %34, align 8, !tbaa !35
  %36 = icmp slt i32 %32, %35
  br i1 %36, label %37, label %52

37:                                               ; preds = %31
  %38 = load ptr, ptr %5, align 8, !tbaa !8
  %39 = getelementptr inbounds nuw %struct.Map_NodeVecStruct_t_, ptr %38, i32 0, i32 0
  %40 = load ptr, ptr %39, align 8, !tbaa !37
  %41 = load i32, ptr %6, align 4, !tbaa !10
  %42 = sext i32 %41 to i64
  %43 = getelementptr inbounds ptr, ptr %40, i64 %42
  %44 = load ptr, ptr %43, align 8, !tbaa !3
  %45 = getelementptr inbounds nuw %struct.Map_NodeStruct_t_, ptr %44, i32 0, i32 5
  %46 = load i32, ptr %45, align 4
  %47 = and i32 %46, -2
  %48 = or i32 %47, 0
  store i32 %48, ptr %45, align 4
  br label %49

49:                                               ; preds = %37
  %50 = load i32, ptr %6, align 4, !tbaa !10
  %51 = add nsw i32 %50, 1
  store i32 %51, ptr %6, align 4, !tbaa !10
  br label %31, !llvm.loop !38

52:                                               ; preds = %31
  %53 = load ptr, ptr %5, align 8, !tbaa !8
  call void @llvm.lifetime.end.p0(i64 4, ptr %6) #4
  call void @llvm.lifetime.end.p0(i64 8, ptr %5) #4
  ret ptr %53
}