; Function Attrs: nounwind uwtable
define ptr @Map_MappingDfs(ptr noundef readonly captures(none) %0, i32 noundef %1) local_unnamed_addr #0 {
  %3 = tail call ptr @Map_NodeVecAlloc(i32 noundef 100) #16
  %4 = getelementptr inbounds nuw i8, ptr %0, i64 40
  %5 = load i32, ptr %4, align 8, !tbaa !16
  %6 = icmp sgt i32 %5, 0
  br i1 %6, label %.lr.ph, label %.preheader

.lr.ph:                                           ; preds = %2
  %7 = getelementptr inbounds nuw i8, ptr %0, i64 32
  br label %11

.preheader:                                       ; preds = %11, %2
  %8 = getelementptr inbounds nuw i8, ptr %3, i64 8
  %9 = load i32, ptr %8, align 8, !tbaa !28
  %10 = icmp sgt i32 %9, 0
  br i1 %10, label %.lr.ph14, label %._crit_edge

11:                                               ; preds = %.lr.ph, %11
  %indvars.iv = phi i64 [ 0, %.lr.ph ], [ %indvars.iv.next, %11 ]
  %12 = load ptr, ptr %7, align 8, !tbaa !30
  %13 = getelementptr inbounds nuw ptr, ptr %12, i64 %indvars.iv
  %14 = load ptr, ptr %13, align 8, !tbaa !31
  %15 = ptrtoint ptr %14 to i64
  %16 = and i64 %15, -2
  %17 = inttoptr i64 %16 to ptr
  tail call void @Map_MappingDfs_rec(ptr noundef %17, ptr noundef %3, i32 noundef %1)
  %indvars.iv.next = add nuw nsw i64 %indvars.iv, 1
  %18 = load i32, ptr %4, align 8, !tbaa !16
  %19 = sext i32 %18 to i64
  %20 = icmp slt i64 %indvars.iv.next, %19
  br i1 %20, label %11, label %.preheader, !llvm.loop !32

.lr.ph14:                                         ; preds = %.preheader, %.lr.ph14
  %indvars.iv16 = phi i64 [ %indvars.iv.next17, %.lr.ph14 ], [ 0, %.preheader ]
  %21 = load ptr, ptr %3, align 8, !tbaa !34
  %22 = getelementptr inbounds nuw ptr, ptr %21, i64 %indvars.iv16
  %23 = load ptr, ptr %22, align 8, !tbaa !31
  %24 = getelementptr inbounds nuw i8, ptr %23, i64 28
  %25 = load i32, ptr %24, align 4
  %26 = and i32 %25, -2
  store i32 %26, ptr %24, align 4
  %indvars.iv.next17 = add nuw nsw i64 %indvars.iv16, 1
  %27 = load i32, ptr %8, align 8, !tbaa !28
  %28 = sext i32 %27 to i64
  %29 = icmp slt i64 %indvars.iv.next17, %28
  br i1 %29, label %.lr.ph14, label %._crit_edge, !llvm.loop !35

._crit_edge:                                      ; preds = %.lr.ph14, %.preheader
  ret ptr %3
}